; Function Attrs: mustprogress nofree norecurse nosync nounwind willreturn memory(argmem: read) uwtable
define dso_local i32 @auth_index(ptr noundef readonly captures(address_is_null) %0) local_unnamed_addr #10 {
  %.not = icmp eq ptr %0, null
  br i1 %.not, label %4, label %2

2:                                                ; preds = %1
  %3 = load i32, ptr %0, align 4
  br label %4

4:                                                ; preds = %1, %2
  %.0 = phi i32 [ %3, %2 ], [ 0, %1 ]
  ret i32 %.0
}